target datalayout = "e-m:e-p270:32:32-p271:32:32-p272:64:64-i64:64-i128:128-f80:128-n8:16:32:64-S128"
target triple = "x86_64-pc-linux-gnu"

%struct.mbedtls_mpi = type { ptr, i16, i16 }

; Function Attrs: nounwind uwtable
define hidden i32 @mbedtls_mpi_mod_int(ptr noundef %0, ptr noundef %1, i64 noundef %2) #0 {
  %4 = alloca i32, align 4
  %5 = alloca ptr, align 8
  %6 = alloca ptr, align 8
  %7 = alloca i64, align 8
  %8 = alloca i64, align 8
  %9 = alloca i64, align 8
  %10 = alloca i64, align 8
  %11 = alloca i64, align 8
  %12 = alloca i32, align 4
  store ptr %0, ptr %5, align 8, !tbaa !25
  store ptr %1, ptr %6, align 8, !tbaa !3
  store i64 %2, ptr %7, align 8, !tbaa !15
  call void @llvm.lifetime.start.p0(i64 8, ptr %8) #9
  call void @llvm.lifetime.start.p0(i64 8, ptr %9) #9
  call void @llvm.lifetime.start.p0(i64 8, ptr %10) #9
  call void @llvm.lifetime.start.p0(i64 8, ptr %11) #9
  %13 = load i64, ptr %7, align 8, !tbaa !15
  %14 = icmp eq i64 %13, 0
  br i1 %14, label %15, label %16

15:                                               ; preds = %3
  store i32 -12, ptr %4, align 4
  store i32 1, ptr %12, align 4
  br label %105

16:                                               ; preds = %3
  %17 = load i64, ptr %7, align 8, !tbaa !15
  %18 = icmp slt i64 %17, 0
  br i1 %18, label %19, label %20

19:                                               ; preds = %16
  store i32 -10, ptr %4, align 4
  store i32 1, ptr %12, align 4
  br label %105

20:                                               ; preds = %16
  %21 = load i64, ptr %7, align 8, !tbaa !15
  %22 = icmp eq i64 %21, 1
  br i1 %22, label %29, label %23

23:                                               ; preds = %20
  %24 = load ptr, ptr %6, align 8, !tbaa !3
  %25 = getelementptr inbounds nuw %struct.mbedtls_mpi, ptr %24, i32 0, i32 2
  %26 = load i16, ptr %25, align 2, !tbaa !10
  %27 = zext i16 %26 to i32
  %28 = icmp eq i32 %27, 0
  br i1 %28, label %29, label %31

29:                                               ; preds = %23, %20
  %30 = load ptr, ptr %5, align 8, !tbaa !25
  store i64 0, ptr %30, align 8, !tbaa !15
  store i32 0, ptr %4, align 4
  store i32 1, ptr %12, align 4
  br label %105

31:                                               ; preds = %23
  %32 = load i64, ptr %7, align 8, !tbaa !15
  %33 = icmp eq i64 %32, 2
  br i1 %33, label %34, label %42

34:                                               ; preds = %31
  %35 = load ptr, ptr %6, align 8, !tbaa !3
  %36 = getelementptr inbounds nuw %struct.mbedtls_mpi, ptr %35, i32 0, i32 0
  %37 = load ptr, ptr %36, align 8, !tbaa !17
  %38 = getelementptr inbounds i64, ptr %37, i64 0
  %39 = load i64, ptr %38, align 8, !tbaa !15
  %40 = and i64 %39, 1
  %41 = load ptr, ptr %5, align 8, !tbaa !25
  store i64 %40, ptr %41, align 8, !tbaa !15
  store i32 0, ptr %4, align 4
  store i32 1, ptr %12, align 4
  br label %105

42:                                               ; preds = %31
  %43 = load ptr, ptr %6, align 8, !tbaa !3
  %44 = getelementptr inbounds nuw %struct.mbedtls_mpi, ptr %43, i32 0, i32 2
  %45 = load i16, ptr %44, align 2, !tbaa !10
  %46 = zext i16 %45 to i64
  store i64 %46, ptr %8, align 8, !tbaa !15
  store i64 0, ptr %10, align 8, !tbaa !15
  br label %47

47:                                               ; preds = %86, %42
  %48 = load i64, ptr %8, align 8, !tbaa !15
  %49 = icmp ugt i64 %48, 0
  br i1 %49, label %50, label %89

50:                                               ; preds = %47
  %51 = load ptr, ptr %6, align 8, !tbaa !3
  %52 = getelementptr inbounds nuw %struct.mbedtls_mpi, ptr %51, i32 0, i32 0
  %53 = load ptr, ptr %52, align 8, !tbaa !17
  %54 = load i64, ptr %8, align 8, !tbaa !15
  %55 = sub i64 %54, 1
  %56 = getelementptr inbounds nuw i64, ptr %53, i64 %55
  %57 = load i64, ptr %56, align 8, !tbaa !15
  store i64 %57, ptr %9, align 8, !tbaa !15
  %58 = load i64, ptr %10, align 8, !tbaa !15
  %59 = shl i64 %58, 32
  %60 = load i64, ptr %9, align 8, !tbaa !15
  %61 = lshr i64 %60, 32
  %62 = or i64 %59, %61
  store i64 %62, ptr %10, align 8, !tbaa !15
  %63 = load i64, ptr %10, align 8, !tbaa !15
  %64 = load i64, ptr %7, align 8, !tbaa !15
  %65 = udiv i64 %63, %64
  store i64 %65, ptr %11, align 8, !tbaa !15
  %66 = load i64, ptr %11, align 8, !tbaa !15
  %67 = load i64, ptr %7, align 8, !tbaa !15
  %68 = mul i64 %66, %67
  %69 = load i64, ptr %10, align 8, !tbaa !15
  %70 = sub i64 %69, %68
  store i64 %70, ptr %10, align 8, !tbaa !15
  %71 = load i64, ptr %9, align 8, !tbaa !15
  %72 = shl i64 %71, 32
  store i64 %72, ptr %9, align 8, !tbaa !15
  %73 = load i64, ptr %10, align 8, !tbaa !15
  %74 = shl i64 %73, 32
  %75 = load i64, ptr %9, align 8, !tbaa !15
  %76 = lshr i64 %75, 32
  %77 = or i64 %74, %76
  store i64 %77, ptr %10, align 8, !tbaa !15
  %78 = load i64, ptr %10, align 8, !tbaa !15
  %79 = load i64, ptr %7, align 8, !tbaa !15
  %80 = udiv i64 %78, %79
  store i64 %80, ptr %11, align 8, !tbaa !15
  %81 = load i64, ptr %11, align 8, !tbaa !15
  %82 = load i64, ptr %7, align 8, !tbaa !15
  %83 = mul i64 %81, %82
  %84 = load i64, ptr %10, align 8, !tbaa !15
  %85 = sub i64 %84, %83
  store i64 %85, ptr %10, align 8, !tbaa !15
  br label %86

86:                                               ; preds = %50
  %87 = load i64, ptr %8, align 8, !tbaa !15
  %88 = add i64 %87, -1
  store i64 %88, ptr %8, align 8, !tbaa !15
  br label %47, !llvm.loop !62

89:                                               ; preds = %47
  %90 = load ptr, ptr %6, align 8, !tbaa !3
  %91 = getelementptr inbounds nuw %struct.mbedtls_mpi, ptr %90, i32 0, i32 1
  %92 = load i16, ptr %91, align 8, !tbaa !14
  %93 = sext i16 %92 to i32
  %94 = icmp slt i32 %93, 0
  br i1 %94, label %95, label %102

95:                                               ; preds = %89
  %96 = load i64, ptr %10, align 8, !tbaa !15
  %97 = icmp ne i64 %96, 0
  br i1 %97, label %98, label %102

98:                                               ; preds = %95
  %99 = load i64, ptr %7, align 8, !tbaa !15
  %100 = load i64, ptr %10, align 8, !tbaa !15
  %101 = sub i64 %99, %100
  store i64 %101, ptr %10, align 8, !tbaa !15
  br label %102

102:                                              ; preds = %98, %95, %89
  %103 = load i64, ptr %10, align 8, !tbaa !15
  %104 = load ptr, ptr %5, align 8, !tbaa !25
  store i64 %103, ptr %104, align 8, !tbaa !15
  store i32 0, ptr %4, align 4
  store i32 1, ptr %12, align 4
  br label %105

105:                                              ; preds = %102, %34, %29, %19, %15
  call void @llvm.lifetime.end.p0(i64 8, ptr %11) #9
  call void @llvm.lifetime.end.p0(i64 8, ptr %10) #9
  call void @llvm.lifetime.end.p0(i64 8, ptr %9) #9
  call void @llvm.lifetime.end.p0(i64 8, ptr %8) #9
  %106 = load i32, ptr %4, align 4
  ret i32 %106
}