; Function Attrs: nofree norecurse nosync nounwind memory(read, argmem: readwrite, inaccessiblemem: none) uwtable
define hidden range(i32 -12, 1) i32 @mbedtls_mpi_mod_int(ptr noundef writeonly captures(none) %0, ptr noundef readonly captures(none) %1, i64 noundef %2) local_unnamed_addr #13 {
  %4 = icmp eq i64 %2, 0
  br i1 %4, label %37, label %5

5:                                                ; preds = %3
  %6 = icmp slt i64 %2, 0
  br i1 %6, label %37, label %7

7:                                                ; preds = %5
  %8 = icmp eq i64 %2, 1
  br i1 %8, label %.sink.split, label %9

9:                                                ; preds = %7
  %10 = getelementptr inbounds nuw i8, ptr %1, i64 10
  %11 = load i16, ptr %10, align 2, !tbaa !3
  %12 = icmp eq i16 %11, 0
  br i1 %12, label %.sink.split, label %13

13:                                               ; preds = %9
  %14 = icmp eq i64 %2, 2
  br i1 %14, label %15, label %19

15:                                               ; preds = %13
  %16 = load ptr, ptr %1, align 8, !tbaa !12
  %17 = load i64, ptr %16, align 8, !tbaa !17
  %18 = and i64 %17, 1
  br label %.sink.split

19:                                               ; preds = %13
  %20 = zext i16 %11 to i64
  %21 = load ptr, ptr %1, align 8, !tbaa !12
  %invariant.gep = getelementptr i8, ptr %21, i64 -8
  br label %22

22:                                               ; preds = %19, %22
  %.03542 = phi i64 [ 0, %19 ], [ %29, %22 ]
  %.03641 = phi i64 [ %20, %19 ], [ %30, %22 ]
  %gep = getelementptr i64, ptr %invariant.gep, i64 %.03641
  %23 = load i64, ptr %gep, align 8, !tbaa !17
  %.fr40 = freeze i64 %23
  %24 = tail call i64 @llvm.fshl.i64(i64 %.03542, i64 %.fr40, i64 32)
  %25 = urem i64 %24, %2
  %26 = and i64 %.fr40, 4294967295
  %27 = shl i64 %25, 32
  %28 = or disjoint i64 %27, %26
  %29 = urem i64 %28, %2
  %30 = add nsw i64 %.03641, -1
  %.not = icmp eq i64 %30, 0
  br i1 %.not, label %31, label %22, !llvm.loop !32

31:                                               ; preds = %22
  %32 = getelementptr inbounds nuw i8, ptr %1, i64 8
  %33 = load i16, ptr %32, align 8, !tbaa !10
  %34 = icmp slt i16 %33, 0
  %35 = icmp ne i64 %29, 0
  %or.cond = select i1 %34, i1 %35, i1 false
  %36 = sub nsw i64 %2, %29
  %spec.select = select i1 %or.cond, i64 %36, i64 %29
  br label %.sink.split

.sink.split:                                      ; preds = %7, %9, %15, %31
  %spec.select.sink = phi i64 [ %spec.select, %31 ], [ %18, %15 ], [ 0, %9 ], [ 0, %7 ]
  store i64 %spec.select.sink, ptr %0, align 8, !tbaa !17
  br label %37

37:                                               ; preds = %.sink.split, %5, %3
  %.0 = phi i32 [ -12, %3 ], [ -10, %5 ], [ 0, %.sink.split ]
  ret i32 %.0
}